target datalayout = "e-m:e-p270:32:32-p271:32:32-p272:64:64-i64:64-i128:128-f80:128-n8:16:32:64-S128"
target triple = "x86_64-pc-linux-gnu"

%struct.anon.0 = type { i8, i8 }
%struct.rb_random_interface_t = type { i64, %struct.anon.0, i16, ptr, ptr, ptr, ptr, ptr }
%struct.rbimpl_size_mul_overflow_tag = type { i8, i64 }

; Function Attrs: inlinehint nounwind sspstrong willreturn memory(none) uwtable
define internal { i8, i64 } @rbimpl_size_mul_overflow(i64 noundef %0, i64 noundef %1) #8 {
  %3 = alloca %struct.rbimpl_size_mul_overflow_tag, align 8
  %4 = alloca i64, align 8
  %5 = alloca i64, align 8
  store i64 %0, ptr %4, align 8, !tbaa !26
  store i64 %1, ptr %5, align 8, !tbaa !26
  call void @llvm.memset.p0.i64(ptr align 8 %3, i8 0, i64 16, i1 false)
  %6 = load i64, ptr %4, align 8, !tbaa !26
  %7 = load i64, ptr %5, align 8, !tbaa !26
  %8 = getelementptr inbounds nuw %struct.rbimpl_size_mul_overflow_tag, ptr %3, i32 0, i32 1
  %9 = call { i64, i1 } @llvm.umul.with.overflow.i64(i64 %6, i64 %7)
  %10 = extractvalue { i64, i1 } %9, 1
  %11 = extractvalue { i64, i1 } %9, 0
  store i64 %11, ptr %8, align 8
  %12 = getelementptr inbounds nuw %struct.rbimpl_size_mul_overflow_tag, ptr %3, i32 0, i32 0
  %13 = zext i1 %10 to i8
  store i8 %13, ptr %12, align 8, !tbaa !80
  %14 = load { i8, i64 }, ptr %3, align 8
  ret { i8, i64 } %14
}

; Function Attrs: inlinehint nounwind sspstrong uwtable
define internal i64 @rbimpl_size_mul_or_raise(i64 noundef %0, i64 noundef %1) #4 {
  %3 = alloca i64, align 8
  %4 = alloca i64, align 8
  %5 = alloca %struct.rbimpl_size_mul_overflow_tag, align 8
  store i64 %0, ptr %3, align 8, !tbaa !26
  store i64 %1, ptr %4, align 8, !tbaa !26
  call void @llvm.lifetime.start.p0(i64 16, ptr %5) #24
  %6 = load i64, ptr %3, align 8, !tbaa !26
  %7 = load i64, ptr %4, align 8, !tbaa !26
  %8 = call { i8, i64 } @rbimpl_size_mul_overflow(i64 noundef %6, i64 noundef %7) #28
  %9 = getelementptr inbounds nuw { i8, i64 }, ptr %5, i32 0, i32 0
  %10 = extractvalue { i8, i64 } %8, 0
  store i8 %10, ptr %9, align 8
  %11 = getelementptr inbounds nuw { i8, i64 }, ptr %5, i32 0, i32 1
  %12 = extractvalue { i8, i64 } %8, 1
  store i64 %12, ptr %11, align 8
  %13 = getelementptr inbounds nuw %struct.rbimpl_size_mul_overflow_tag, ptr %5, i32 0, i32 0
  %14 = load i8, ptr %13, align 8, !tbaa !80, !range !62, !noundef !63
  %15 = trunc i8 %14 to i1
  %16 = xor i1 %15, true
  %17 = xor i1 %16, true
  %18 = xor i1 %17, true
  %19 = zext i1 %18 to i32
  %20 = sext i32 %19 to i64
  %21 = call i64 @llvm.expect.i64(i64 %20, i64 1)
  %22 = icmp ne i64 %21, 0
  br i1 %22, label %23, label %26

23:                                               ; preds = %2
  %24 = getelementptr inbounds nuw %struct.rbimpl_size_mul_overflow_tag, ptr %5, i32 0, i32 1
  %25 = load i64, ptr %24, align 8, !tbaa !82
  call void @llvm.lifetime.end.p0(i64 16, ptr %5) #24
  ret i64 %25

26:                                               ; preds = %2
  %27 = load i64, ptr %3, align 8, !tbaa !26
  %28 = load i64, ptr %4, align 8, !tbaa !26
  call void @ruby_malloc_size_overflow(i64 noundef %27, i64 noundef %28) #27
  unreachable
}

; Function Attrs: alwaysinline nounwind sspstrong uwtable
define available_externally void @explicit_bzero(ptr noundef nonnull %0, i64 noundef %1) #5 {
  %3 = alloca ptr, align 8
  %4 = alloca i64, align 8
  store ptr %0, ptr %3, align 8, !tbaa !20
  store i64 %1, ptr %4, align 8, !tbaa !26
  %5 = load ptr, ptr %3, align 8, !tbaa !20
  %6 = load i64, ptr %4, align 8, !tbaa !26
  %7 = load ptr, ptr %3, align 8, !tbaa !20
  %8 = call i64 @llvm.objectsize.i64.p0(ptr %7, i1 false, i1 true, i1 false)
  call void @__explicit_bzero_chk(ptr noundef %5, i64 noundef %6, i64 noundef %8) #24
  ret void
}

; Function Attrs: inlinehint nounwind sspstrong uwtable
define internal ptr @rb_alloc_tmp_buffer2(ptr noundef %0, i64 noundef %1, i64 noundef %2) #4 {
  %4 = alloca ptr, align 8
  %5 = alloca i64, align 8
  %6 = alloca i64, align 8
  %7 = alloca i64, align 8
  %8 = alloca i64, align 8
  store ptr %0, ptr %4, align 8, !tbaa !55
  store i64 %1, ptr %5, align 8, !tbaa !26
  store i64 %2, ptr %6, align 8, !tbaa !26
  call void @llvm.lifetime.start.p0(i64 8, ptr %7) #24
  %9 = load i64, ptr %5, align 8, !tbaa !26
  %10 = load i64, ptr %6, align 8, !tbaa !26
  %11 = call i64 @rbimpl_size_mul_or_raise(i64 noundef %9, i64 noundef %10)
  store i64 %11, ptr %7, align 8, !tbaa !26
  call void @llvm.lifetime.start.p0(i64 8, ptr %8) #24
  %12 = load i64, ptr %7, align 8, !tbaa !26
  %13 = add i64 %12, 8
  %14 = sub i64 %13, 1
  %15 = udiv i64 %14, 8
  store i64 %15, ptr %8, align 8, !tbaa !26
  %16 = load ptr, ptr %4, align 8, !tbaa !55
  %17 = load i64, ptr %7, align 8, !tbaa !26
  %18 = load i64, ptr %8, align 8, !tbaa !26
  %19 = call noalias nonnull ptr @rb_alloc_tmp_buffer_with_count(ptr noundef %16, i64 noundef %17, i64 noundef %18) #30
  call void @llvm.lifetime.end.p0(i64 8, ptr %8) #24
  call void @llvm.lifetime.end.p0(i64 8, ptr %7) #24
  ret ptr %19
}

; Function Attrs: nounwind sspstrong uwtable
define internal i64 @rand_init(ptr noundef %0, ptr noundef %1, i64 noundef %2) #0 {
  %4 = alloca ptr, align 8
  %5 = alloca ptr, align 8
  %6 = alloca i64, align 8
  %7 = alloca ptr, align 8
  %8 = alloca i64, align 8
  %9 = alloca i64, align 8
  %10 = alloca i32, align 4
  store ptr %0, ptr %4, align 8, !tbaa !20
  store ptr %1, ptr %5, align 8, !tbaa !24
  store i64 %2, ptr %6, align 8, !tbaa !26
  call void @llvm.lifetime.start.p0(i64 8, ptr %7) #24
  call void @llvm.lifetime.start.p0(i64 8, ptr %8) #24
  store i64 0, ptr %8, align 8, !tbaa !26
  call void @llvm.lifetime.start.p0(i64 8, ptr %9) #24
  call void @llvm.lifetime.start.p0(i64 4, ptr %10) #24
  %11 = load i64, ptr %6, align 8, !tbaa !26
  %12 = call i64 @rb_absint_numwords(i64 noundef %11, i64 noundef 32, ptr noundef null)
  store i64 %12, ptr %9, align 8, !tbaa !26
  %13 = load i64, ptr %9, align 8, !tbaa !26
  %14 = icmp eq i64 %13, 0
  br i1 %14, label %15, label %16

15:                                               ; preds = %3
  store i64 1, ptr %9, align 8, !tbaa !26
  br label %16

16:                                               ; preds = %15, %3
  %17 = load i64, ptr %9, align 8, !tbaa !26
  %18 = icmp ult i64 %17, 256
  br i1 %18, label %19, label %23

19:                                               ; preds = %16
  store i64 0, ptr %8, align 8, !tbaa !26
  %20 = load i64, ptr %9, align 8, !tbaa !26
  %21 = mul i64 %20, 4
  %22 = alloca i8, i64 %21, align 16
  br label %26

23:                                               ; preds = %16
  %24 = load i64, ptr %9, align 8, !tbaa !26
  %25 = call ptr @rb_alloc_tmp_buffer2(ptr noundef %8, i64 noundef %24, i64 noundef 4)
  br label %26

26:                                               ; preds = %23, %19
  %27 = phi ptr [ %22, %19 ], [ %25, %23 ]
  store ptr %27, ptr %7, align 8, !tbaa !59
  %28 = load i64, ptr %6, align 8, !tbaa !26
  %29 = load ptr, ptr %7, align 8, !tbaa !59
  %30 = load i64, ptr %9, align 8, !tbaa !26
  %31 = call i32 @rb_integer_pack(i64 noundef %28, ptr noundef %29, i64 noundef %30, i64 noundef 4, i64 noundef 0, i32 noundef 66)
  store i32 %31, ptr %10, align 4, !tbaa !19
  %32 = load i32, ptr %10, align 4, !tbaa !19
  %33 = icmp slt i32 %32, 0
  br i1 %33, label %34, label %37

34:                                               ; preds = %26
  %35 = load i32, ptr %10, align 4, !tbaa !19
  %36 = sub i32 0, %35
  store i32 %36, ptr %10, align 4, !tbaa !19
  br label %37

37:                                               ; preds = %34, %26
  %38 = load i64, ptr %9, align 8, !tbaa !26
  %39 = icmp eq i64 %38, 1
  br i1 %39, label %40, label %48

40:                                               ; preds = %37
  %41 = load ptr, ptr %4, align 8, !tbaa !20
  %42 = getelementptr inbounds nuw %struct.rb_random_interface_t, ptr %41, i32 0, i32 4
  %43 = load ptr, ptr %42, align 8, !tbaa !78
  %44 = load ptr, ptr %5, align 8, !tbaa !24
  %45 = load ptr, ptr %7, align 8, !tbaa !59
  %46 = getelementptr i32, ptr %45, i64 0
  %47 = load i32, ptr %46, align 4, !tbaa !19
  call void %43(ptr noundef %44, i32 noundef %47)
  br label %68

48:                                               ; preds = %37
  %49 = load i32, ptr %10, align 4, !tbaa !19
  %50 = icmp ne i32 %49, 2
  br i1 %50, label %51, label %61

51:                                               ; preds = %48
  %52 = load ptr, ptr %7, align 8, !tbaa !59
  %53 = load i64, ptr %9, align 8, !tbaa !26
  %54 = sub i64 %53, 1
  %55 = getelementptr i32, ptr %52, i64 %54
  %56 = load i32, ptr %55, align 4, !tbaa !19
  %57 = icmp eq i32 %56, 1
  br i1 %57, label %58, label %61

58:                                               ; preds = %51
  %59 = load i64, ptr %9, align 8, !tbaa !26
  %60 = add i64 %59, -1
  store i64 %60, ptr %9, align 8, !tbaa !26
  br label %61

61:                                               ; preds = %58, %51, %48
  %62 = load ptr, ptr %4, align 8, !tbaa !20
  %63 = getelementptr inbounds nuw %struct.rb_random_interface_t, ptr %62, i32 0, i32 3
  %64 = load ptr, ptr %63, align 8, !tbaa !79
  %65 = load ptr, ptr %5, align 8, !tbaa !24
  %66 = load ptr, ptr %7, align 8, !tbaa !59
  %67 = load i64, ptr %9, align 8, !tbaa !26
  call void %64(ptr noundef %65, ptr noundef %66, i64 noundef %67)
  br label %68

68:                                               ; preds = %61, %40
  %69 = load ptr, ptr %7, align 8, !tbaa !59
  %70 = load i64, ptr %9, align 8, !tbaa !26
  %71 = mul i64 %70, 4
  call void @explicit_bzero(ptr noundef %69, i64 noundef %71) #24
  call void @rb_free_tmp_buffer(ptr noundef %8)
  %72 = load i64, ptr %6, align 8, !tbaa !26
  call void @llvm.lifetime.end.p0(i64 4, ptr %10) #24
  call void @llvm.lifetime.end.p0(i64 8, ptr %9) #24
  call void @llvm.lifetime.end.p0(i64 8, ptr %8) #24
  call void @llvm.lifetime.end.p0(i64 8, ptr %7) #24
  ret i64 %72
}