; Function Attrs: nounwind sspstrong uwtable
define internal fastcc noundef i64 @rand_init(ptr noundef readonly captures(none) %0, ptr noundef %1, i64 noundef returned %2) unnamed_addr #0 {
  %4 = alloca i64, align 8
  call void @llvm.lifetime.start.p0(i64 8, ptr nonnull %4) #23
  store i64 0, ptr %4, align 8, !tbaa !43
  %5 = tail call i64 @rb_absint_numwords(i64 noundef %2, i64 noundef 32, ptr noundef null) #23
  %spec.store.select = tail call i64 @llvm.umax.i64(i64 %5, i64 1)
  %6 = icmp ult i64 %5, 256
  br i1 %6, label %15, label %7

7:                                                ; preds = %3
  %8 = icmp ugt i64 %5, 4611686018427387903
  br i1 %8, label %9, label %.thread, !prof !88

9:                                                ; preds = %7
  tail call void @ruby_malloc_size_overflow(i64 noundef range(i64 256, 0) %spec.store.select, i64 noundef 4) #25
  unreachable

.thread:                                          ; preds = %7
  %10 = shl nuw i64 %spec.store.select, 2
  %11 = add i64 %10, 7
  %12 = lshr i64 %11, 3
  %13 = call noalias nonnull ptr @rb_alloc_tmp_buffer_with_count(ptr noundef nonnull %4, i64 noundef %10, i64 noundef %12) #28
  %14 = call i32 @rb_integer_pack(i64 noundef %2, ptr noundef nonnull %13, i64 noundef %spec.store.select, i64 noundef 4, i64 noundef 0, i32 noundef 66) #23
  br label %24

15:                                               ; preds = %3
  store i64 0, ptr %4, align 8, !tbaa !43
  %16 = shl nuw nsw i64 %spec.store.select, 2
  %17 = alloca i8, i64 %16, align 16
  %18 = call i32 @rb_integer_pack(i64 noundef %2, ptr noundef nonnull %17, i64 noundef %spec.store.select, i64 noundef 4, i64 noundef 0, i32 noundef 66) #23
  %19 = icmp samesign ult i64 %5, 2
  br i1 %19, label %20, label %24

20:                                               ; preds = %15
  %21 = getelementptr inbounds nuw i8, ptr %0, i64 24
  %22 = load ptr, ptr %21, align 8, !tbaa !89
  %23 = load i32, ptr %17, align 16, !tbaa !22
  call void %22(ptr noundef %1, i32 noundef %23) #23
  br label %37

24:                                               ; preds = %.thread, %15
  %25 = phi i32 [ %14, %.thread ], [ %18, %15 ]
  %26 = phi ptr [ %13, %.thread ], [ %17, %15 ]
  %spec.select = call i32 @llvm.abs.i32(i32 %25, i1 false)
  %.not = icmp eq i32 %spec.select, 2
  br i1 %.not, label %33, label %27

27:                                               ; preds = %24
  %28 = getelementptr i32, ptr %26, i64 %spec.store.select
  %29 = getelementptr i8, ptr %28, i64 -4
  %30 = load i32, ptr %29, align 4, !tbaa !22
  %31 = icmp eq i32 %30, 1
  %32 = sext i1 %31 to i64
  %spec.select27 = add i64 %spec.store.select, %32
  br label %33

33:                                               ; preds = %27, %24
  %.1 = phi i64 [ %spec.store.select, %24 ], [ %spec.select27, %27 ]
  %34 = getelementptr inbounds nuw i8, ptr %0, i64 16
  %35 = load ptr, ptr %34, align 8, !tbaa !90
  call void %35(ptr noundef %1, ptr noundef nonnull %26, i64 noundef %.1) #23
  %36 = shl i64 %.1, 2
  br label %37

37:                                               ; preds = %33, %20
  %38 = phi ptr [ %17, %20 ], [ %26, %33 ]
  %.024 = phi i64 [ 4, %20 ], [ %36, %33 ]
  call void @__explicit_bzero_chk(ptr noundef nonnull %38, i64 noundef %.024, i64 noundef -1) #23
  call void @rb_free_tmp_buffer(ptr noundef nonnull %4) #23
  call void @llvm.lifetime.end.p0(i64 8, ptr nonnull %4) #23
  ret i64 %2
}